; Function Attrs: null_pointer_is_valid sspstrong uwtable
define internal fastcc noundef i32 @dissect_rsl_ie_osmo_training_seq(ptr noundef %0, ptr noundef %1, i32 noundef %2) unnamed_addr #0 {
  %4 = alloca ptr, align 8
  %5 = alloca i32, align 4
  call void @llvm.lifetime.start.p0(i64 8, ptr nonnull %4) #6
  call void @llvm.lifetime.start.p0(i64 4, ptr nonnull %5) #6
  %6 = tail call zeroext i8 @tvb_get_uint8(ptr noundef %0, i32 noundef %2)
  %.not = icmp eq i8 %6, 97
  br i1 %.not, label %7, label %25

7:                                                ; preds = %3
  %8 = load i32, ptr @ett_ie_osmo_training_seq, align 4
  %9 = call ptr @proto_tree_add_subtree(ptr noundef %1, ptr noundef %0, i32 noundef %2, i32 noundef 0, i32 noundef %8, ptr noundef nonnull %4, ptr noundef nonnull @.str.815)
  %10 = load i32, ptr @hf_rsl_ie_id, align 4
  %11 = add i32 %2, 1
  %12 = call ptr @proto_tree_add_item(ptr noundef %9, i32 noundef %10, ptr noundef %0, i32 noundef %2, i32 noundef 1, i32 noundef 0)
  %13 = load i32, ptr @hf_rsl_ie_length, align 4
  %14 = add i32 %2, 2
  %15 = call ptr @proto_tree_add_item_ret_uint(ptr noundef %9, i32 noundef %13, ptr noundef %0, i32 noundef %11, i32 noundef 1, i32 noundef 0, ptr noundef nonnull %5)
  %16 = load ptr, ptr %4, align 8
  %17 = load i32, ptr %5, align 4
  %18 = add i32 %17, 2
  call void @proto_item_set_len(ptr noundef %16, i32 noundef %18)
  %19 = load i32, ptr @hf_rsl_osmo_tsc_set, align 4
  %20 = add i32 %2, 3
  %21 = call ptr @proto_tree_add_item(ptr noundef %9, i32 noundef %19, ptr noundef %0, i32 noundef %14, i32 noundef 1, i32 noundef 0)
  %22 = load i32, ptr @hf_rsl_osmo_tsc_val, align 4
  %23 = add i32 %2, 4
  %24 = call ptr @proto_tree_add_item(ptr noundef %9, i32 noundef %22, ptr noundef %0, i32 noundef %20, i32 noundef 1, i32 noundef 0)
  br label %25

25:                                               ; preds = %3, %7
  %.0 = phi i32 [ %23, %7 ], [ %2, %3 ]
  call void @llvm.lifetime.end.p0(i64 4, ptr nonnull %5) #6
  call void @llvm.lifetime.end.p0(i64 8, ptr nonnull %4) #6
  ret i32 %.0
}